target datalayout = "e-m:e-p270:32:32-p271:32:32-p272:64:64-i64:64-i128:128-f80:128-n8:16:32:64-S128"
target triple = "x86_64-unknown-linux-gnu"

%struct.redisServer = type { i32, i64, ptr, ptr, ptr, i32, i32, i32, i32, i32, ptr, ptr, ptr, ptr, ptr, ptr, i32, i32, i64, i32, i32, i32, i32, ptr, i32, i32, [41 x i8], i32, i64, i32, i32, i32, ptr, ptr, i32, i32, i64, ptr, ptr, ptr, ptr, [2 x i32], i32, i32, i32, i32, i32, [16 x ptr], i32, ptr, ptr, i32, [8 x %struct.connListener], i32, %struct.connListener, ptr, ptr, ptr, ptr, ptr, ptr, ptr, ptr, ptr, ptr, i32, ptr, i32, ptr, [3 x %struct.pause_event], [256 x i8], ptr, i64, i32, i32, i32, i32, i64, i32, i32, i32, i32, i32, i64, i64, i64, i64, i64, i64, i64, i64, i64, double, i64, i64, i64, i64, i64, i64, i64, i64, i64, i64, i64, i64, i64, i64, i64, i64, i64, i64, i64, i64, double, i64, i64, i64, i64, i64, ptr, i64, i64, i64, %struct.malloc_stats, i64, i64, i64, i64, i64, i64, i64, i64, i64, i64, i64, i64, double, [4 x i64], i64, i64, i64, i64, i64, i64, i64, i64, i64, i64, [7 x %struct.anon], i64, i64, i64, i64, i64, i64, [4 x %struct.durationStats], i32, i32, i32, i32, i32, i32, i32, i32, i32, i32, i64, i32, i32, i32, i32, i64, i64, i32, i32, i32, i32, i32, ptr, [3 x %struct.clientBufferLimitsConfig], i32, i32, ptr, i32, i32, i32, i32, ptr, ptr, i32, i32, i64, i64, i64, i64, i64, i32, i32, ptr, i32, i32, i64, i64, i64, i64, i64, i32, i32, i64, i32, i32, i32, i32, i32, i32, i32, i32, ptr, i32, i64, i64, i64, i64, ptr, i32, ptr, i32, i32, i32, i64, i64, i64, i64, i32, i32, i32, i32, i32, i32, ptr, i32, i32, ptr, i32, i32, i32, [2 x i32], i32, %struct.redisOpArray, i32, ptr, i32, ptr, i32, i32, i32, i32, i32, i32, i32, [41 x i8], [41 x i8], i64, i64, i64, i64, i32, i32, ptr, i64, i64, i64, i32, i32, i32, i32, i32, i32, i32, i64, ptr, ptr, ptr, ptr, i32, i32, ptr, ptr, i32, i32, i64, i64, i64, ptr, i32, ptr, i64, i32, i32, i32, i64, i32, i32, i32, i32, ptr, i32, i32, [41 x i8], i64, i32, ptr, i32, i32, i64, i64, i32, i32, i32, i32, i32, i64, [3 x i32], i32, i32, i32, [9 x i32], ptr, ptr, i32, i64, ptr, ptr, i32, i32, i32, i32, i64, i64, i64, i64, i64, i64, i64, i64, i64, i64, i32, i32, i64, i64, i32, i64, i64, i64, i64, i64, ptr, ptr, i32, ptr, i32, i32, i32, i64, i64, ptr, ptr, i32, i32, i32, i32, i32, ptr, ptr, ptr, i32, i32, i32, i32, i32, i32, i32, i64, i32, i64, i32, i32, i32, i32, i32, i32, i32, i64, ptr, ptr, i64, ptr, i32, %struct.aclInfo, i32, i64, i32, i32, i32, %struct.redisTLSContextConfig, ptr, ptr, ptr, ptr, ptr, i64, i32, ptr, i32, i32, i32, i64, i32, ptr }
%struct.connListener = type { [16 x i32], i32, ptr, i32, i32, ptr, ptr }
%struct.pause_event = type { i32, i64 }
%struct.malloc_stats = type { i64, i64, i64, i64, i64 }
%struct.anon = type { i64, i64, [16 x i64], i32 }
%struct.durationStats = type { i64, i64, i64 }
%struct.clientBufferLimitsConfig = type { i64, i64, i64 }
%struct.redisOpArray = type { ptr, i32, i32 }
%struct.aclInfo = type { i64, i64, i64, i64 }
%struct.redisTLSContextConfig = type { ptr, ptr, ptr, ptr, ptr, ptr, ptr, ptr, ptr, ptr, ptr, ptr, i32, i32, i32, i32 }
%struct.client = type { i64, i64, ptr, i32, ptr, ptr, ptr, ptr, ptr, i64, i64, i32, ptr, i32, i32, ptr, i64, ptr, ptr, ptr, ptr, i32, i32, i64, ptr, i64, ptr, i64, i64, i64, i32, ptr, i64, i64, i32, i32, i32, i32, i64, i64, ptr, i64, i64, i64, i64, i64, i64, i64, i64, [41 x i8], i32, ptr, i32, i32, %struct.multiState, %struct.blockingState, i64, ptr, ptr, ptr, ptr, ptr, ptr, ptr, ptr, ptr, ptr, ptr, ptr, ptr, ptr, i64, ptr, i64, i32, ptr, ptr, ptr, i64, %struct.listNode, i64, i64, i32, i64, ptr }
%struct.multiState = type { ptr, i32, i32, i32, i64, i32 }
%struct.blockingState = type { i32, i64, i32, ptr, i32, i32, i64, ptr, ptr }
%struct.listNode = type { ptr, ptr, ptr }
%struct.listIter = type { ptr, i32 }

@server = external global %struct.redisServer, align 8
@.str.82 = private unnamed_addr constant [74 x i8] c"RDB transfer completed, rdb only replica (%s) should be disconnected asap\00", align 1
@.str.83 = private unnamed_addr constant [42 x i8] c"Synchronization with replica %s succeeded\00", align 1

; Function Attrs: nounwind uwtable
define dso_local void @refreshGoodSlavesCount() #0 {
entry:
  %li = alloca %struct.listIter, align 8
  %ln = alloca ptr, align 8
  %good = alloca i32, align 4
  %slave = alloca ptr, align 8
  %lag = alloca i64, align 8
  store i32 0, ptr %good, align 4
  %0 = load i32, ptr getelementptr inbounds (%struct.redisServer, ptr @server, i32 0, i32 272), align 8
  %tobool = icmp ne i32 %0, 0
  br i1 %tobool, label %lor.lhs.false, label %if.then

lor.lhs.false:                                    ; preds = %entry
  %1 = load i32, ptr getelementptr inbounds (%struct.redisServer, ptr @server, i32 0, i32 273), align 4
  %tobool1 = icmp ne i32 %1, 0
  br i1 %tobool1, label %if.end, label %if.then

if.then:                                          ; preds = %lor.lhs.false, %entry
  br label %return

if.end:                                           ; preds = %lor.lhs.false
  %2 = load ptr, ptr getelementptr inbounds (%struct.redisServer, ptr @server, i32 0, i32 59), align 8
  call void @listRewind(ptr noundef %2, ptr noundef %li)
  br label %while.cond

while.cond:                                       ; preds = %if.end6, %if.end
  %call = call ptr @listNext(ptr noundef %li)
  store ptr %call, ptr %ln, align 8
  %tobool2 = icmp ne ptr %call, null
  br i1 %tobool2, label %while.body, label %while.end

while.body:                                       ; preds = %while.cond
  %3 = load ptr, ptr %ln, align 8
  %value = getelementptr inbounds %struct.listNode, ptr %3, i32 0, i32 2
  %4 = load ptr, ptr %value, align 8
  store ptr %4, ptr %slave, align 8
  %atomic-load = load atomic i64, ptr getelementptr inbounds (%struct.redisServer, ptr @server, i32 0, i32 349) seq_cst, align 8
  %5 = load ptr, ptr %slave, align 8
  %repl_ack_time = getelementptr inbounds %struct.client, ptr %5, i32 0, i32 46
  %6 = load i64, ptr %repl_ack_time, align 8
  %sub = sub nsw i64 %atomic-load, %6
  store i64 %sub, ptr %lag, align 8
  %7 = load ptr, ptr %slave, align 8
  %replstate = getelementptr inbounds %struct.client, ptr %7, i32 0, i32 35
  %8 = load i32, ptr %replstate, align 4
  %cmp = icmp eq i32 %8, 9
  br i1 %cmp, label %land.lhs.true, label %if.end6

land.lhs.true:                                    ; preds = %while.body
  %9 = load i64, ptr %lag, align 8
  %10 = load i32, ptr getelementptr inbounds (%struct.redisServer, ptr @server, i32 0, i32 273), align 4
  %conv = sext i32 %10 to i64
  %cmp3 = icmp sle i64 %9, %conv
  br i1 %cmp3, label %if.then5, label %if.end6

if.then5:                                         ; preds = %land.lhs.true
  %11 = load i32, ptr %good, align 4
  %inc = add nsw i32 %11, 1
  store i32 %inc, ptr %good, align 4
  br label %if.end6

if.end6:                                          ; preds = %if.then5, %land.lhs.true, %while.body
  br label %while.cond, !llvm.loop !16

while.end:                                        ; preds = %while.cond
  %12 = load i32, ptr %good, align 4
  store i32 %12, ptr getelementptr inbounds (%struct.redisServer, ptr @server, i32 0, i32 274), align 8
  br label %return

return:                                           ; preds = %while.end, %if.then
  ret void
}

; Function Attrs: nounwind uwtable
define dso_local i32 @replicaPutOnline(ptr noundef %slave) #0 {
entry:
  %retval = alloca i32, align 4
  %slave.addr = alloca ptr, align 8
  store ptr %slave, ptr %slave.addr, align 8
  %0 = load ptr, ptr %slave.addr, align 8
  %flags = getelementptr inbounds %struct.client, ptr %0, i32 0, i32 1
  %1 = load i64, ptr %flags, align 8
  %and = and i64 %1, 4398046511104
  %tobool = icmp ne i64 %and, 0
  br i1 %tobool, label %if.then, label %if.end2

if.then:                                          ; preds = %entry
  %2 = load ptr, ptr %slave.addr, align 8
  %replstate = getelementptr inbounds %struct.client, ptr %2, i32 0, i32 35
  store i32 10, ptr %replstate, align 4
  br label %do.body

do.body:                                          ; preds = %if.then
  %3 = load i32, ptr getelementptr inbounds (%struct.redisServer, ptr @server, i32 0, i32 156), align 8
  %cmp = icmp slt i32 2, %3
  br i1 %cmp, label %if.then1, label %if.end

if.then1:                                         ; preds = %do.body
  br label %do.end

if.end:                                           ; preds = %do.body
  %4 = load ptr, ptr %slave.addr, align 8
  %call = call ptr @replicationGetSlaveName(ptr noundef %4)
  call void (i32, ptr, ...) @_serverLog(i32 noundef 2, ptr noundef @.str.82, ptr noundef %call)
  br label %do.end

do.end:                                           ; preds = %if.end, %if.then1
  store i32 0, ptr %retval, align 4
  br label %return

if.end2:                                          ; preds = %entry
  %5 = load ptr, ptr %slave.addr, align 8
  %replstate3 = getelementptr inbounds %struct.client, ptr %5, i32 0, i32 35
  store i32 9, ptr %replstate3, align 4
  %atomic-load = load atomic i64, ptr getelementptr inbounds (%struct.redisServer, ptr @server, i32 0, i32 349) seq_cst, align 8
  %6 = load ptr, ptr %slave.addr, align 8
  %repl_ack_time = getelementptr inbounds %struct.client, ptr %6, i32 0, i32 46
  store i64 %atomic-load, ptr %repl_ack_time, align 8
  call void @refreshGoodSlavesCount()
  call void @moduleFireServerEvent(i64 noundef 6, i32 noundef 0, ptr noundef null)
  br label %do.body4

do.body4:                                         ; preds = %if.end2
  %7 = load i32, ptr getelementptr inbounds (%struct.redisServer, ptr @server, i32 0, i32 156), align 8
  %cmp5 = icmp slt i32 2, %7
  br i1 %cmp5, label %if.then6, label %if.end7

if.then6:                                         ; preds = %do.body4
  br label %do.end9

if.end7:                                          ; preds = %do.body4
  %8 = load ptr, ptr %slave.addr, align 8
  %call8 = call ptr @replicationGetSlaveName(ptr noundef %8)
  call void (i32, ptr, ...) @_serverLog(i32 noundef 2, ptr noundef @.str.83, ptr noundef %call8)
  br label %do.end9

do.end9:                                          ; preds = %if.end7, %if.then6
  store i32 1, ptr %retval, align 4
  br label %return

return:                                           ; preds = %do.end9, %do.end
  %9 = load i32, ptr %retval, align 4
  ret i32 %9
}