; Function Attrs: nounwind uwtable
define dso_local noundef i32 @replicaPutOnline(ptr nocapture noundef %slave) local_unnamed_addr #0 {
entry:
  %li.i = alloca %struct.listIter, align 8
  %flags = getelementptr inbounds i8, ptr %slave, i64 8
  %0 = load i64, ptr %flags, align 8
  %and = and i64 %0, 4398046511104
  %tobool.not = icmp eq i64 %and, 0
  %replstate3 = getelementptr inbounds i8, ptr %slave, i64 260
  br i1 %tobool.not, label %if.end2, label %if.then

if.then:                                          ; preds = %entry
  store i32 10, ptr %replstate3, align 4
  %1 = load i32, ptr getelementptr inbounds (%struct.redisServer, ptr @server, i64 0, i32 156), align 8
  %cmp = icmp sgt i32 %1, 2
  br i1 %cmp, label %return, label %if.end

if.end:                                           ; preds = %if.then
  %call = tail call ptr @replicationGetSlaveName(ptr noundef nonnull %slave)
  tail call void (i32, ptr, ...) @_serverLog(i32 noundef 2, ptr noundef nonnull @.str.82, ptr noundef nonnull @replicationGetSlaveName.buf) #21
  br label %return

if.end2:                                          ; preds = %entry
  store i32 9, ptr %replstate3, align 4
  %atomic-load = load atomic i64, ptr getelementptr inbounds (%struct.redisServer, ptr @server, i64 0, i32 349) seq_cst, align 8
  %repl_ack_time = getelementptr inbounds i8, ptr %slave, i64 336
  store i64 %atomic-load, ptr %repl_ack_time, align 8
  call void @llvm.lifetime.start.p0(i64 16, ptr nonnull %li.i)
  %2 = load i32, ptr getelementptr inbounds (%struct.redisServer, ptr @server, i64 0, i32 272), align 8
  %tobool.i = icmp ne i32 %2, 0
  %3 = load i32, ptr getelementptr inbounds (%struct.redisServer, ptr @server, i64 0, i32 273), align 4
  %tobool1.i = icmp ne i32 %3, 0
  %or.cond.i = select i1 %tobool.i, i1 %tobool1.i, i1 false
  br i1 %or.cond.i, label %if.end.i, label %refreshGoodSlavesCount.exit

if.end.i:                                         ; preds = %if.end2
  %4 = load ptr, ptr getelementptr inbounds (%struct.redisServer, ptr @server, i64 0, i32 59), align 8
  call void @listRewind(ptr noundef %4, ptr noundef nonnull %li.i) #21
  %call3.i = call ptr @listNext(ptr noundef nonnull %li.i) #21
  %tobool2.not4.i = icmp eq ptr %call3.i, null
  br i1 %tobool2.not4.i, label %while.end.i, label %while.body.i

while.body.i:                                     ; preds = %if.end.i, %if.end6.i
  %call6.i = phi ptr [ %call.i, %if.end6.i ], [ %call3.i, %if.end.i ]
  %good.05.i = phi i32 [ %good.1.i, %if.end6.i ], [ 0, %if.end.i ]
  %value.i = getelementptr inbounds i8, ptr %call6.i, i64 16
  %5 = load ptr, ptr %value.i, align 8
  %atomic-load.i = load atomic i64, ptr getelementptr inbounds (%struct.redisServer, ptr @server, i64 0, i32 349) seq_cst, align 8
  %replstate.i = getelementptr inbounds i8, ptr %5, i64 260
  %6 = load i32, ptr %replstate.i, align 4
  %cmp.i = icmp eq i32 %6, 9
  br i1 %cmp.i, label %land.lhs.true.i, label %if.end6.i

land.lhs.true.i:                                  ; preds = %while.body.i
  %repl_ack_time.i = getelementptr inbounds i8, ptr %5, i64 336
  %7 = load i64, ptr %repl_ack_time.i, align 8
  %sub.i = sub nsw i64 %atomic-load.i, %7
  %8 = load i32, ptr getelementptr inbounds (%struct.redisServer, ptr @server, i64 0, i32 273), align 4
  %conv.i = sext i32 %8 to i64
  %cmp3.not.i = icmp sle i64 %sub.i, %conv.i
  %inc.i = zext i1 %cmp3.not.i to i32
  %spec.select.i = add nsw i32 %good.05.i, %inc.i
  br label %if.end6.i

if.end6.i:                                        ; preds = %land.lhs.true.i, %while.body.i
  %good.1.i = phi i32 [ %good.05.i, %while.body.i ], [ %spec.select.i, %land.lhs.true.i ]
  %call.i = call ptr @listNext(ptr noundef nonnull %li.i) #21
  %tobool2.not.i = icmp eq ptr %call.i, null
  br i1 %tobool2.not.i, label %while.end.i, label %while.body.i, !llvm.loop !15

while.end.i:                                      ; preds = %if.end6.i, %if.end.i
  %good.0.lcssa.i = phi i32 [ 0, %if.end.i ], [ %good.1.i, %if.end6.i ]
  store i32 %good.0.lcssa.i, ptr getelementptr inbounds (%struct.redisServer, ptr @server, i64 0, i32 274), align 8
  br label %refreshGoodSlavesCount.exit

refreshGoodSlavesCount.exit:                      ; preds = %if.end2, %while.end.i
  call void @llvm.lifetime.end.p0(i64 16, ptr nonnull %li.i)
  call void @moduleFireServerEvent(i64 noundef 6, i32 noundef 0, ptr noundef null) #21
  %9 = load i32, ptr getelementptr inbounds (%struct.redisServer, ptr @server, i64 0, i32 156), align 8
  %cmp5 = icmp sgt i32 %9, 2
  br i1 %cmp5, label %return, label %if.end7

if.end7:                                          ; preds = %refreshGoodSlavesCount.exit
  %call8 = call ptr @replicationGetSlaveName(ptr noundef %slave)
  call void (i32, ptr, ...) @_serverLog(i32 noundef 2, ptr noundef nonnull @.str.83, ptr noundef nonnull @replicationGetSlaveName.buf) #21
  br label %return

return:                                           ; preds = %if.end7, %refreshGoodSlavesCount.exit, %if.end, %if.then
  %retval.0 = phi i32 [ 0, %if.then ], [ 0, %if.end ], [ 1, %refreshGoodSlavesCount.exit ], [ 1, %if.end7 ]
  ret i32 %retval.0
}